target datalayout = "e-m:e-p270:32:32-p271:32:32-p272:64:64-i64:64-i128:128-f80:128-n8:16:32:64-S128"
target triple = "x86_64-unknown-linux-gnu"

%"class.icu_75::BucketList" = type { %"class.icu_75::UObject", ptr, ptr }
%"class.icu_75::UObject" = type { ptr }
%"class.icu_75::AlphabeticIndex::Bucket" = type { %"class.icu_75::UObject", %"class.icu_75::UnicodeString", %"class.icu_75::UnicodeString", i32, ptr, i32, ptr }
%"class.icu_75::UnicodeString" = type { %"class.icu_75::Replaceable", %"union.icu_75::UnicodeString::StackBufferOrFields" }
%"class.icu_75::Replaceable" = type { %"class.icu_75::UObject" }
%"union.icu_75::UnicodeString::StackBufferOrFields" = type { %struct.anon.0, [32 x i8] }
%struct.anon.0 = type { i16, i32, i32, ptr }
%"class.icu_75::AlphabeticIndex" = type { %"class.icu_75::UObject", ptr, i32, i32, ptr, i32, ptr, ptr, ptr, ptr, ptr, %"class.icu_75::UnicodeString", %"class.icu_75::UnicodeString", %"class.icu_75::UnicodeString", %"class.icu_75::UnicodeString", %"class.icu_75::UnicodeString" }
%"class.icu_75::UVector" = type { %"class.icu_75::UObject", i32, i32, ptr, ptr, ptr }

; Function Attrs: mustprogress uwtable
define linkonce_odr noundef ptr @_ZNK6icu_757UVectorixEi(ptr noundef nonnull align 8 dereferenceable(40) %this, i32 noundef %index) #2 comdat align 2 {
entry:
  %this.addr = alloca ptr, align 8
  %index.addr = alloca i32, align 4
  store ptr %this, ptr %this.addr, align 8
  store i32 %index, ptr %index.addr, align 4
  %this1 = load ptr, ptr %this.addr, align 8
  %0 = load i32, ptr %index.addr, align 4
  %call = call noundef ptr @_ZNK6icu_757UVector9elementAtEi(ptr noundef nonnull align 8 dereferenceable(40) %this1, i32 noundef %0)
  ret ptr %call
}

; Function Attrs: mustprogress uwtable
define internal noundef ptr @_ZN6icu_7512_GLOBAL__N_19getBucketERKNS_7UVectorEi(ptr noundef nonnull align 8 dereferenceable(40) %list, i32 noundef %i) #2 {
entry:
  %list.addr = alloca ptr, align 8
  %i.addr = alloca i32, align 4
  store ptr %list, ptr %list.addr, align 8
  store i32 %i, ptr %i.addr, align 4
  %0 = load ptr, ptr %list.addr, align 8
  %1 = load i32, ptr %i.addr, align 4
  %call = call noundef ptr @_ZNK6icu_757UVectorixEi(ptr noundef nonnull align 8 dereferenceable(40) %0, i32 noundef %1)
  ret ptr %call
}

; Function Attrs: mustprogress nounwind uwtable
define linkonce_odr noundef i32 @_ZNK6icu_757UVector4sizeEv(ptr noundef nonnull align 8 dereferenceable(40) %this) #0 comdat align 2 {
entry:
  %this.addr = alloca ptr, align 8
  store ptr %this, ptr %this.addr, align 8
  %this1 = load ptr, ptr %this.addr, align 8
  %count = getelementptr inbounds %"class.icu_75::UVector", ptr %this1, i32 0, i32 1
  %0 = load i32, ptr %count, align 8
  ret i32 %0
}

; Function Attrs: mustprogress uwtable
define linkonce_odr noundef i32 @_ZN6icu_7510BucketList14getBucketIndexERKNS_13UnicodeStringERKNS_8CollatorER10UErrorCode(ptr noundef nonnull align 8 dereferenceable(24) %this, ptr noundef nonnull align 8 dereferenceable(64) %name, ptr noundef nonnull align 8 dereferenceable(8) %collatorPrimaryOnly, ptr noundef nonnull align 4 dereferenceable(4) %errorCode) #2 comdat align 2 {
entry:
  %this.addr = alloca ptr, align 8
  %name.addr = alloca ptr, align 8
  %collatorPrimaryOnly.addr = alloca ptr, align 8
  %errorCode.addr = alloca ptr, align 8
  %start = alloca i32, align 4
  %limit = alloca i32, align 4
  %i = alloca i32, align 4
  %bucket = alloca ptr, align 8
  %nameVsBucket = alloca i32, align 4
  %bucket7 = alloca ptr, align 8
  store ptr %this, ptr %this.addr, align 8
  store ptr %name, ptr %name.addr, align 8
  store ptr %collatorPrimaryOnly, ptr %collatorPrimaryOnly.addr, align 8
  store ptr %errorCode, ptr %errorCode.addr, align 8
  %this1 = load ptr, ptr %this.addr, align 8
  store i32 0, ptr %start, align 4
  %bucketList_ = getelementptr inbounds %"class.icu_75::BucketList", ptr %this1, i32 0, i32 1
  %0 = load ptr, ptr %bucketList_, align 8
  %call = call noundef i32 @_ZNK6icu_757UVector4sizeEv(ptr noundef nonnull align 8 dereferenceable(40) %0)
  store i32 %call, ptr %limit, align 4
  br label %while.cond

while.cond:                                       ; preds = %if.end, %entry
  %1 = load i32, ptr %start, align 4
  %add = add nsw i32 %1, 1
  %2 = load i32, ptr %limit, align 4
  %cmp = icmp slt i32 %add, %2
  br i1 %cmp, label %while.body, label %while.end

while.body:                                       ; preds = %while.cond
  %3 = load i32, ptr %start, align 4
  %4 = load i32, ptr %limit, align 4
  %add2 = add nsw i32 %3, %4
  %div = sdiv i32 %add2, 2
  store i32 %div, ptr %i, align 4
  %bucketList_3 = getelementptr inbounds %"class.icu_75::BucketList", ptr %this1, i32 0, i32 1
  %5 = load ptr, ptr %bucketList_3, align 8
  %6 = load i32, ptr %i, align 4
  %call4 = call noundef ptr @_ZN6icu_7512_GLOBAL__N_19getBucketERKNS_7UVectorEi(ptr noundef nonnull align 8 dereferenceable(40) %5, i32 noundef %6)
  store ptr %call4, ptr %bucket, align 8
  %7 = load ptr, ptr %collatorPrimaryOnly.addr, align 8
  %8 = load ptr, ptr %name.addr, align 8
  %9 = load ptr, ptr %bucket, align 8
  %lowerBoundary_ = getelementptr inbounds %"class.icu_75::AlphabeticIndex::Bucket", ptr %9, i32 0, i32 2
  %10 = load ptr, ptr %errorCode.addr, align 8
  %vtable = load ptr, ptr %7, align 8
  %vfn = getelementptr inbounds ptr, ptr %vtable, i64 7
  %11 = load ptr, ptr %vfn, align 8
  %call5 = call noundef i32 %11(ptr noundef nonnull align 8 dereferenceable(8) %7, ptr noundef nonnull align 8 dereferenceable(64) %8, ptr noundef nonnull align 8 dereferenceable(64) %lowerBoundary_, ptr noundef nonnull align 4 dereferenceable(4) %10)
  store i32 %call5, ptr %nameVsBucket, align 4
  %12 = load i32, ptr %nameVsBucket, align 4
  %cmp6 = icmp slt i32 %12, 0
  br i1 %cmp6, label %if.then, label %if.else

if.then:                                          ; preds = %while.body
  %13 = load i32, ptr %i, align 4
  store i32 %13, ptr %limit, align 4
  br label %if.end

if.else:                                          ; preds = %while.body
  %14 = load i32, ptr %i, align 4
  store i32 %14, ptr %start, align 4
  br label %if.end

if.end:                                           ; preds = %if.else, %if.then
  br label %while.cond, !llvm.loop !4

while.end:                                        ; preds = %while.cond
  %bucketList_8 = getelementptr inbounds %"class.icu_75::BucketList", ptr %this1, i32 0, i32 1
  %15 = load ptr, ptr %bucketList_8, align 8
  %16 = load i32, ptr %start, align 4
  %call9 = call noundef ptr @_ZN6icu_7512_GLOBAL__N_19getBucketERKNS_7UVectorEi(ptr noundef nonnull align 8 dereferenceable(40) %15, i32 noundef %16)
  store ptr %call9, ptr %bucket7, align 8
  %17 = load ptr, ptr %bucket7, align 8
  %displayBucket_ = getelementptr inbounds %"class.icu_75::AlphabeticIndex::Bucket", ptr %17, i32 0, i32 4
  %18 = load ptr, ptr %displayBucket_, align 8
  %cmp10 = icmp ne ptr %18, null
  br i1 %cmp10, label %if.then11, label %if.end13

if.then11:                                        ; preds = %while.end
  %19 = load ptr, ptr %bucket7, align 8
  %displayBucket_12 = getelementptr inbounds %"class.icu_75::AlphabeticIndex::Bucket", ptr %19, i32 0, i32 4
  %20 = load ptr, ptr %displayBucket_12, align 8
  store ptr %20, ptr %bucket7, align 8
  br label %if.end13

if.end13:                                         ; preds = %if.then11, %while.end
  %21 = load ptr, ptr %bucket7, align 8
  %displayIndex_ = getelementptr inbounds %"class.icu_75::AlphabeticIndex::Bucket", ptr %21, i32 0, i32 5
  %22 = load i32, ptr %displayIndex_, align 8
  ret i32 %22
}

; Function Attrs: mustprogress nounwind uwtable
define internal noundef signext i8 @_ZL9U_FAILURE10UErrorCode(i32 noundef %code) #0 {
entry:
  %code.addr = alloca i32, align 4
  store i32 %code, ptr %code.addr, align 4
  %0 = load i32, ptr %code.addr, align 4
  %cmp = icmp sgt i32 %0, 0
  %conv = zext i1 %cmp to i8
  ret i8 %conv
}

; Function Attrs: mustprogress uwtable
define noundef i32 @_ZN6icu_7515AlphabeticIndex14getBucketIndexERKNS_13UnicodeStringER10UErrorCode(ptr noundef nonnull align 8 dereferenceable(400) %this, ptr noundef nonnull align 8 dereferenceable(64) %name, ptr noundef nonnull align 4 dereferenceable(4) %status) unnamed_addr #2 align 2 {
entry:
  %retval = alloca i32, align 4
  %this.addr = alloca ptr, align 8
  %name.addr = alloca ptr, align 8
  %status.addr = alloca ptr, align 8
  store ptr %this, ptr %this.addr, align 8
  store ptr %name, ptr %name.addr, align 8
  store ptr %status, ptr %status.addr, align 8
  %this1 = load ptr, ptr %this.addr, align 8
  %0 = load ptr, ptr %status.addr, align 8
  call void @_ZN6icu_7515AlphabeticIndex11initBucketsER10UErrorCode(ptr noundef nonnull align 8 dereferenceable(400) %this1, ptr noundef nonnull align 4 dereferenceable(4) %0)
  %1 = load ptr, ptr %status.addr, align 8
  %2 = load i32, ptr %1, align 4
  %call = call noundef signext i8 @_ZL9U_FAILURE10UErrorCode(i32 noundef %2)
  %tobool = icmp ne i8 %call, 0
  br i1 %tobool, label %if.then, label %if.end

if.then:                                          ; preds = %entry
  store i32 0, ptr %retval, align 4
  br label %return

if.end:                                           ; preds = %entry
  %buckets_ = getelementptr inbounds %"class.icu_75::AlphabeticIndex", ptr %this1, i32 0, i32 10
  %3 = load ptr, ptr %buckets_, align 8
  %4 = load ptr, ptr %name.addr, align 8
  %collatorPrimaryOnly_ = getelementptr inbounds %"class.icu_75::AlphabeticIndex", ptr %this1, i32 0, i32 9
  %5 = load ptr, ptr %collatorPrimaryOnly_, align 8
  %6 = load ptr, ptr %status.addr, align 8
  %call2 = call noundef i32 @_ZN6icu_7510BucketList14getBucketIndexERKNS_13UnicodeStringERKNS_8CollatorER10UErrorCode(ptr noundef nonnull align 8 dereferenceable(24) %3, ptr noundef nonnull align 8 dereferenceable(64) %4, ptr noundef nonnull align 8 dereferenceable(8) %5, ptr noundef nonnull align 4 dereferenceable(4) %6)
  store i32 %call2, ptr %retval, align 4
  br label %return

return:                                           ; preds = %if.end, %if.then
  %7 = load i32, ptr %retval, align 4
  ret i32 %7
}