; Function Attrs: mustprogress uwtable
define noundef i32 @_ZN6icu_7515AlphabeticIndex14getBucketIndexERKNS_13UnicodeStringER10UErrorCode(ptr noundef nonnull align 8 dereferenceable(400) %this, ptr noundef nonnull align 8 dereferenceable(64) %name, ptr noundef nonnull align 4 dereferenceable(4) %status) unnamed_addr #3 align 2 {
entry:
  tail call void @_ZN6icu_7515AlphabeticIndex11initBucketsER10UErrorCode(ptr noundef nonnull align 8 dereferenceable(400) %this, ptr noundef nonnull align 4 dereferenceable(4) %status)
  %0 = load i32, ptr %status, align 4
  %cmp.i = icmp slt i32 %0, 1
  br i1 %cmp.i, label %if.end, label %return

if.end:                                           ; preds = %entry
  %buckets_ = getelementptr inbounds i8, ptr %this, i64 72
  %1 = load ptr, ptr %buckets_, align 8
  %collatorPrimaryOnly_ = getelementptr inbounds i8, ptr %this, i64 64
  %2 = load ptr, ptr %collatorPrimaryOnly_, align 8
  %bucketList_.i = getelementptr inbounds i8, ptr %1, i64 8
  %3 = load ptr, ptr %bucketList_.i, align 8
  %count.i.i = getelementptr inbounds i8, ptr %3, i64 8
  %4 = load i32, ptr %count.i.i, align 8
  %cmp10.i = icmp sgt i32 %4, 1
  br i1 %cmp10.i, label %while.body.i, label %_ZN6icu_7510BucketList14getBucketIndexERKNS_13UnicodeStringERKNS_8CollatorER10UErrorCode.exit

while.body.i:                                     ; preds = %if.end, %while.body.i
  %start.012.i = phi i32 [ %start.0.div8.i, %while.body.i ], [ 0, %if.end ]
  %limit.011.i = phi i32 [ %div8.limit.0.i, %while.body.i ], [ %4, %if.end ]
  %add2.i = add nuw nsw i32 %limit.011.i, %start.012.i
  %div8.i = lshr i32 %add2.i, 1
  %5 = load ptr, ptr %bucketList_.i, align 8
  %call.i.i.i = tail call noundef ptr @_ZNK6icu_757UVector9elementAtEi(ptr noundef nonnull align 8 dereferenceable(40) %5, i32 noundef %div8.i)
  %lowerBoundary_.i = getelementptr inbounds i8, ptr %call.i.i.i, i64 72
  %vtable.i = load ptr, ptr %2, align 8
  %vfn.i = getelementptr inbounds i8, ptr %vtable.i, i64 56
  %6 = load ptr, ptr %vfn.i, align 8
  %call5.i = tail call noundef i32 %6(ptr noundef nonnull align 8 dereferenceable(8) %2, ptr noundef nonnull align 8 dereferenceable(64) %name, ptr noundef nonnull align 8 dereferenceable(64) %lowerBoundary_.i, ptr noundef nonnull align 4 dereferenceable(4) %status)
  %cmp6.i = icmp slt i32 %call5.i, 0
  %div8.limit.0.i = select i1 %cmp6.i, i32 %div8.i, i32 %limit.011.i
  %start.0.div8.i = select i1 %cmp6.i, i32 %start.012.i, i32 %div8.i
  %add.i = add nuw nsw i32 %start.0.div8.i, 1
  %cmp.i3 = icmp slt i32 %add.i, %div8.limit.0.i
  br i1 %cmp.i3, label %while.body.i, label %while.end.loopexit.i, !llvm.loop !4

while.end.loopexit.i:                             ; preds = %while.body.i
  %.pre.i = load ptr, ptr %bucketList_.i, align 8
  br label %_ZN6icu_7510BucketList14getBucketIndexERKNS_13UnicodeStringERKNS_8CollatorER10UErrorCode.exit

_ZN6icu_7510BucketList14getBucketIndexERKNS_13UnicodeStringERKNS_8CollatorER10UErrorCode.exit: ; preds = %if.end, %while.end.loopexit.i
  %7 = phi ptr [ %3, %if.end ], [ %.pre.i, %while.end.loopexit.i ]
  %start.0.lcssa.i = phi i32 [ 0, %if.end ], [ %start.0.div8.i, %while.end.loopexit.i ]
  %call.i.i9.i = tail call noundef ptr @_ZNK6icu_757UVector9elementAtEi(ptr noundef nonnull align 8 dereferenceable(40) %7, i32 noundef %start.0.lcssa.i)
  %displayBucket_.i = getelementptr inbounds i8, ptr %call.i.i9.i, i64 144
  %8 = load ptr, ptr %displayBucket_.i, align 8
  %cmp10.not.i = icmp eq ptr %8, null
  %spec.select.i = select i1 %cmp10.not.i, ptr %call.i.i9.i, ptr %8
  %displayIndex_.i = getelementptr inbounds i8, ptr %spec.select.i, i64 152
  %9 = load i32, ptr %displayIndex_.i, align 8
  br label %return

return:                                           ; preds = %entry, %_ZN6icu_7510BucketList14getBucketIndexERKNS_13UnicodeStringERKNS_8CollatorER10UErrorCode.exit
  %retval.0 = phi i32 [ %9, %_ZN6icu_7510BucketList14getBucketIndexERKNS_13UnicodeStringERKNS_8CollatorER10UErrorCode.exit ], [ 0, %entry ]
  ret i32 %retval.0
}